	.file	"main.cpp"
__SP_H__ = 0x3e
__SP_L__ = 0x3d
__SREG__ = 0x3f
__tmp_reg__ = 0
__zero_reg__ = 1
	.text
.Ltext0:
	.cfi_sections	.debug_frame
	.file 1 "main.cpp"
	.section	.text.startup,"ax",@progbits
.global	main
	.type	main, @function
main:
.LFB0:
	.cfi_startproc
/* prologue: function */
/* frame size = 0 */
/* stack size = 0 */
.L__stack_usage = 0
	sbi 0x4,5
	in r24,0xa
	ori r24,lo8(-64)
	out 0xa,r24
	sbi 0x5,5
/* #APP */
 ;  23 "main.cpp" 1
	cli
 ;  0 "" 2
/* #NOAPP */
	ldi r24,lo8(2)
	sts 176,r24
	ldi r24,lo8(1)
	sts 177,r24
	sts 178,__zero_reg__
	ldi r24,lo8(95)
	sts 179,r24
	ldi r24,lo8(47)
	sts 180,r24
	lds r24,112
	ori r24,lo8(6)
	sts 112,r24
/* #APP */
 ;  30 "main.cpp" 1
	sei
 ;  0 "" 2
/* #NOAPP */
	ldi r24,lo8(3)
	sts 196,r24
	sts 197,__zero_reg__
	ldi r24,lo8(24)
	sts 193,r24
.L2:
	lds r24,192
	sbrs r24,5
	rjmp .L2
	ldi r24,lo8(67)
	sts 198,r24
.LBB2:
	ldi r30,lo8(82)
.L3:
	lds r24,192
	sbrs r24,7
	rjmp .L3
	lds r24,198
.LVL0:
.L4:
	lds r25,192
	sbrs r25,7
	rjmp .L4
	lds r18,198
	mov r19,r24
	ldi r20,0
	ldi r22,lo8(-30)
	ldi r23,0
	ldi r24,0
	call __mulpsi3
	sts targetStepPosition,r22
	sts targetStepPosition+1,r23
	sts targetStepPosition+2,r24
.LVL1:
.L5:
	lds r24,192
	sbrs r24,5
	rjmp .L5
	sts 198,r30
.LBE2:
	rjmp .L3
	.cfi_endproc
.LFE0:
	.size	main, .-main
	.text
.global	__vector_7
	.type	__vector_7, @function
__vector_7:
.LFB1:
	.cfi_startproc
	__gcc_isr 1
/* prologue: Signal */
/* frame size = 0 */
/* stack size = 0...3 */
.L__stack_usage = 0 + __gcc_isr.n_pushed
/* #APP */
 ;  82 "main.cpp" 1
	cbi 11, 6
	
 ;  0 "" 2
/* #NOAPP */
/* epilogue start */
	__gcc_isr 2
	reti
	__gcc_isr 0,r0
	.cfi_endproc
.LFE1:
	.size	__vector_7, .-__vector_7
.global	__vector_8
	.type	__vector_8, @function
__vector_8:
.LFB2:
	.cfi_startproc
	__gcc_isr 1
	push r19
.LCFI0:
	.cfi_def_cfa_offset 3
	.cfi_offset 19, -2
	push r20
.LCFI1:
	.cfi_def_cfa_offset 4
	.cfi_offset 20, -3
	push r24
.LCFI2:
	.cfi_def_cfa_offset 5
	.cfi_offset 24, -4
	push r25
.LCFI3:
	.cfi_def_cfa_offset 6
	.cfi_offset 25, -5
	push r26
.LCFI4:
	.cfi_def_cfa_offset 7
	.cfi_offset 26, -6
/* prologue: Signal */
/* frame size = 0 */
/* stack size = 5...9 */
.L__stack_usage = 5 + __gcc_isr.n_pushed
	lds r18,targetStepPosition
	lds r19,targetStepPosition+1
	lds r20,targetStepPosition+2
	lds r24,currentStepPosition
	lds r25,currentStepPosition+1
	lds r26,currentStepPosition+2
/* #APP */
 ;  91 "main.cpp" 1
	cp r24, r18
	cpc r25, r19
	cpc r26, r20
	breq end
	brlo up
	sbi 11, 7
	sbi 11, 6
	sbiw r24, 1
	sbc r26, __zero_reg__
	rjmp end
	up:
	cbi 11, 7
	sbi 11, 6
	adiw r24, 1
	adc r26, __zero_reg__
	end:
	
 ;  0 "" 2
/* #NOAPP */
	sts currentStepPosition,r24
	sts currentStepPosition+1,r25
	sts currentStepPosition+2,r26
/* epilogue start */
	pop r26
	pop r25
	pop r24
	pop r20
	pop r19
	__gcc_isr 2
	reti
	__gcc_isr 0,r18
	.cfi_endproc
.LFE2:
	.size	__vector_8, .-__vector_8
.global	targetStepPosition
	.section .bss
	.type	targetStepPosition, @object
	.size	targetStepPosition, 3
targetStepPosition:
	.zero	3
.global	currentStepPosition
	.type	currentStepPosition, @object
	.size	currentStepPosition, 3
currentStepPosition:
	.zero	3
	.text
.Letext0:
	.file 2 "c:\\msys64\\mingw64\\avr\\include\\stdint.h"
	.file 3 "./config.h"